
chal:     file format elf64-x86-64


Disassembly of section .init:

0000000000001000 <_init>:
    1000:	f3 0f 1e fa          	endbr64 
    1004:	48 83 ec 08          	sub    $0x8,%rsp
    1008:	48 8b 05 d9 2f 00 00 	mov    0x2fd9(%rip),%rax        # 3fe8 <__gmon_start__>
    100f:	48 85 c0             	test   %rax,%rax
    1012:	74 02                	je     1016 <_init+0x16>
    1014:	ff d0                	callq  *%rax
    1016:	48 83 c4 08          	add    $0x8,%rsp
    101a:	c3                   	retq   

Disassembly of section .plt:

0000000000001020 <.plt>:
    1020:	ff 35 72 2f 00 00    	pushq  0x2f72(%rip)        # 3f98 <_GLOBAL_OFFSET_TABLE_+0x8>
    1026:	f2 ff 25 73 2f 00 00 	bnd jmpq *0x2f73(%rip)        # 3fa0 <_GLOBAL_OFFSET_TABLE_+0x10>
    102d:	0f 1f 00             	nopl   (%rax)
    1030:	f3 0f 1e fa          	endbr64 
    1034:	68 00 00 00 00       	pushq  $0x0
    1039:	f2 e9 e1 ff ff ff    	bnd jmpq 1020 <.plt>
    103f:	90                   	nop
    1040:	f3 0f 1e fa          	endbr64 
    1044:	68 01 00 00 00       	pushq  $0x1
    1049:	f2 e9 d1 ff ff ff    	bnd jmpq 1020 <.plt>
    104f:	90                   	nop
    1050:	f3 0f 1e fa          	endbr64 
    1054:	68 02 00 00 00       	pushq  $0x2
    1059:	f2 e9 c1 ff ff ff    	bnd jmpq 1020 <.plt>
    105f:	90                   	nop
    1060:	f3 0f 1e fa          	endbr64 
    1064:	68 03 00 00 00       	pushq  $0x3
    1069:	f2 e9 b1 ff ff ff    	bnd jmpq 1020 <.plt>
    106f:	90                   	nop
    1070:	f3 0f 1e fa          	endbr64 
    1074:	68 04 00 00 00       	pushq  $0x4
    1079:	f2 e9 a1 ff ff ff    	bnd jmpq 1020 <.plt>
    107f:	90                   	nop
    1080:	f3 0f 1e fa          	endbr64 
    1084:	68 05 00 00 00       	pushq  $0x5
    1089:	f2 e9 91 ff ff ff    	bnd jmpq 1020 <.plt>
    108f:	90                   	nop

Disassembly of section .plt.got:

0000000000001090 <__cxa_finalize@plt>:
    1090:	f3 0f 1e fa          	endbr64 
    1094:	f2 ff 25 5d 2f 00 00 	bnd jmpq *0x2f5d(%rip)        # 3ff8 <__cxa_finalize@GLIBC_2.2.5>
    109b:	0f 1f 44 00 00       	nopl   0x0(%rax,%rax,1)

Disassembly of section .plt.sec:

00000000000010a0 <strncmp@plt>:
    10a0:	f3 0f 1e fa          	endbr64 
    10a4:	f2 ff 25 fd 2e 00 00 	bnd jmpq *0x2efd(%rip)        # 3fa8 <strncmp@GLIBC_2.2.5>
    10ab:	0f 1f 44 00 00       	nopl   0x0(%rax,%rax,1)

00000000000010b0 <puts@plt>:
    10b0:	f3 0f 1e fa          	endbr64 
    10b4:	f2 ff 25 f5 2e 00 00 	bnd jmpq *0x2ef5(%rip)        # 3fb0 <puts@GLIBC_2.2.5>
    10bb:	0f 1f 44 00 00       	nopl   0x0(%rax,%rax,1)

00000000000010c0 <strlen@plt>:
    10c0:	f3 0f 1e fa          	endbr64 
    10c4:	f2 ff 25 ed 2e 00 00 	bnd jmpq *0x2eed(%rip)        # 3fb8 <strlen@GLIBC_2.2.5>
    10cb:	0f 1f 44 00 00       	nopl   0x0(%rax,%rax,1)

00000000000010d0 <__stack_chk_fail@plt>:
    10d0:	f3 0f 1e fa          	endbr64 
    10d4:	f2 ff 25 e5 2e 00 00 	bnd jmpq *0x2ee5(%rip)        # 3fc0 <__stack_chk_fail@GLIBC_2.4>
    10db:	0f 1f 44 00 00       	nopl   0x0(%rax,%rax,1)

00000000000010e0 <fgets@plt>:
    10e0:	f3 0f 1e fa          	endbr64 
    10e4:	f2 ff 25 dd 2e 00 00 	bnd jmpq *0x2edd(%rip)        # 3fc8 <fgets@GLIBC_2.2.5>
    10eb:	0f 1f 44 00 00       	nopl   0x0(%rax,%rax,1)

00000000000010f0 <exit@plt>:
    10f0:	f3 0f 1e fa          	endbr64 
    10f4:	f2 ff 25 d5 2e 00 00 	bnd jmpq *0x2ed5(%rip)        # 3fd0 <exit@GLIBC_2.2.5>
    10fb:	0f 1f 44 00 00       	nopl   0x0(%rax,%rax,1)

Disassembly of section .text:

0000000000001100 <_start>:
    1100:	f3 0f 1e fa          	endbr64 
    1104:	31 ed                	xor    %ebp,%ebp
    1106:	49 89 d1             	mov    %rdx,%r9
    1109:	5e                   	pop    %rsi
    110a:	48 89 e2             	mov    %rsp,%rdx
    110d:	48 83 e4 f0          	and    $0xfffffffffffffff0,%rsp
    1111:	50                   	push   %rax
    1112:	54                   	push   %rsp
    1113:	4c 8d 05 26 04 00 00 	lea    0x426(%rip),%r8        # 1540 <__libc_csu_fini>
    111a:	48 8d 0d af 03 00 00 	lea    0x3af(%rip),%rcx        # 14d0 <__libc_csu_init>
    1121:	48 8d 3d df 00 00 00 	lea    0xdf(%rip),%rdi        # 1207 <main>
    1128:	ff 15 b2 2e 00 00    	callq  *0x2eb2(%rip)        # 3fe0 <__libc_start_main@GLIBC_2.2.5>
    112e:	f4                   	hlt    
    112f:	90                   	nop

0000000000001130 <deregister_tm_clones>:
    1130:	48 8d 3d d9 2e 00 00 	lea    0x2ed9(%rip),%rdi        # 4010 <stdin@@GLIBC_2.2.5>
    1137:	48 8d 05 d2 2e 00 00 	lea    0x2ed2(%rip),%rax        # 4010 <stdin@@GLIBC_2.2.5>
    113e:	48 39 f8             	cmp    %rdi,%rax
    1141:	74 15                	je     1158 <deregister_tm_clones+0x28>
    1143:	48 8b 05 8e 2e 00 00 	mov    0x2e8e(%rip),%rax        # 3fd8 <_ITM_deregisterTMCloneTable>
    114a:	48 85 c0             	test   %rax,%rax
    114d:	74 09                	je     1158 <deregister_tm_clones+0x28>
    114f:	ff e0                	jmpq   *%rax
    1151:	0f 1f 80 00 00 00 00 	nopl   0x0(%rax)
    1158:	c3                   	retq   
    1159:	0f 1f 80 00 00 00 00 	nopl   0x0(%rax)

0000000000001160 <register_tm_clones>:
    1160:	48 8d 3d a9 2e 00 00 	lea    0x2ea9(%rip),%rdi        # 4010 <stdin@@GLIBC_2.2.5>
    1167:	48 8d 35 a2 2e 00 00 	lea    0x2ea2(%rip),%rsi        # 4010 <stdin@@GLIBC_2.2.5>
    116e:	48 29 fe             	sub    %rdi,%rsi
    1171:	48 89 f0             	mov    %rsi,%rax
    1174:	48 c1 ee 3f          	shr    $0x3f,%rsi
    1178:	48 c1 f8 03          	sar    $0x3,%rax
    117c:	48 01 c6             	add    %rax,%rsi
    117f:	48 d1 fe             	sar    %rsi
    1182:	74 14                	je     1198 <register_tm_clones+0x38>
    1184:	48 8b 05 65 2e 00 00 	mov    0x2e65(%rip),%rax        # 3ff0 <_ITM_registerTMCloneTable>
    118b:	48 85 c0             	test   %rax,%rax
    118e:	74 08                	je     1198 <register_tm_clones+0x38>
    1190:	ff e0                	jmpq   *%rax
    1192:	66 0f 1f 44 00 00    	nopw   0x0(%rax,%rax,1)
    1198:	c3                   	retq   
    1199:	0f 1f 80 00 00 00 00 	nopl   0x0(%rax)

00000000000011a0 <__do_global_dtors_aux>:
    11a0:	f3 0f 1e fa          	endbr64 
    11a4:	80 3d 6d 2e 00 00 00 	cmpb   $0x0,0x2e6d(%rip)        # 4018 <completed.8061>
    11ab:	75 2b                	jne    11d8 <__do_global_dtors_aux+0x38>
    11ad:	55                   	push   %rbp
    11ae:	48 83 3d 42 2e 00 00 	cmpq   $0x0,0x2e42(%rip)        # 3ff8 <__cxa_finalize@GLIBC_2.2.5>
    11b5:	00 
    11b6:	48 89 e5             	mov    %rsp,%rbp
    11b9:	74 0c                	je     11c7 <__do_global_dtors_aux+0x27>
    11bb:	48 8b 3d 46 2e 00 00 	mov    0x2e46(%rip),%rdi        # 4008 <__dso_handle>
    11c2:	e8 c9 fe ff ff       	callq  1090 <__cxa_finalize@plt>
    11c7:	e8 64 ff ff ff       	callq  1130 <deregister_tm_clones>
    11cc:	c6 05 45 2e 00 00 01 	movb   $0x1,0x2e45(%rip)        # 4018 <completed.8061>
    11d3:	5d                   	pop    %rbp
    11d4:	c3                   	retq   
    11d5:	0f 1f 00             	nopl   (%rax)
    11d8:	c3                   	retq   
    11d9:	0f 1f 80 00 00 00 00 	nopl   0x0(%rax)

00000000000011e0 <frame_dummy>:
    11e0:	f3 0f 1e fa          	endbr64 
    11e4:	e9 77 ff ff ff       	jmpq   1160 <register_tm_clones>

00000000000011e9 <bad>:
    11e9:	f3 0f 1e fa          	endbr64 
    11ed:	55                   	push   %rbp
    11ee:	48 89 e5             	mov    %rsp,%rbp
    11f1:	48 8d 3d 10 0e 00 00 	lea    0xe10(%rip),%rdi        # 2008 <_IO_stdin_used+0x8>
    11f8:	e8 b3 fe ff ff       	callq  10b0 <puts@plt>
    11fd:	bf 01 00 00 00       	mov    $0x1,%edi
    1202:	e8 e9 fe ff ff       	callq  10f0 <exit@plt>

0000000000001207 <main>:
    1207:	f3 0f 1e fa          	endbr64 
    120b:	55                   	push   %rbp
    120c:	48 89 e5             	mov    %rsp,%rbp
    120f:	48 83 ec 40          	sub    $0x40,%rsp
    1213:	64 48 8b 04 25 28 00 	mov    %fs:0x28,%rax
    121a:	00 00 
    121c:	48 89 45 f8          	mov    %rax,-0x8(%rbp)
    1220:	31 c0                	xor    %eax,%eax
    1222:	48 8b 15 e7 2d 00 00 	mov    0x2de7(%rip),%rdx        # 4010 <stdin@@GLIBC_2.2.5>
    1229:	48 8d 45 c0          	lea    -0x40(%rbp),%rax
    122d:	be 29 00 00 00       	mov    $0x29,%esi
    1232:	48 89 c7             	mov    %rax,%rdi
    1235:	e8 a6 fe ff ff       	callq  10e0 <fgets@plt>
    123a:	c6 45 e8 00          	movb   $0x0,-0x18(%rbp)
    123e:	48 8d 45 c0          	lea    -0x40(%rbp),%rax
    1242:	48 89 c7             	mov    %rax,%rdi
    1245:	e8 76 fe ff ff       	callq  10c0 <strlen@plt>
    124a:	48 83 f8 28          	cmp    $0x28,%rax
    124e:	74 0a                	je     125a <main+0x53>
    1250:	b8 00 00 00 00       	mov    $0x0,%eax
    1255:	e8 8f ff ff ff       	callq  11e9 <bad>
    125a:	48 8d 45 c0          	lea    -0x40(%rbp),%rax
    125e:	48 83 c0 1e          	add    $0x1e,%rax
    1262:	ba 03 00 00 00       	mov    $0x3,%edx
    1267:	48 8d 35 a8 0d 00 00 	lea    0xda8(%rip),%rsi        # 2016 <_IO_stdin_used+0x16>
    126e:	48 89 c7             	mov    %rax,%rdi
    1271:	e8 2a fe ff ff       	callq  10a0 <strncmp@plt>
    1276:	85 c0                	test   %eax,%eax
    1278:	74 0a                	je     1284 <main+0x7d>
    127a:	b8 00 00 00 00       	mov    $0x0,%eax
    127f:	e8 65 ff ff ff       	callq  11e9 <bad>
    1284:	48 8d 45 c0          	lea    -0x40(%rbp),%rax
    1288:	48 83 c0 06          	add    $0x6,%rax
    128c:	ba 03 00 00 00       	mov    $0x3,%edx
    1291:	48 8d 35 82 0d 00 00 	lea    0xd82(%rip),%rsi        # 201a <_IO_stdin_used+0x1a>
    1298:	48 89 c7             	mov    %rax,%rdi
    129b:	e8 00 fe ff ff       	callq  10a0 <strncmp@plt>
    12a0:	85 c0                	test   %eax,%eax
    12a2:	74 0a                	je     12ae <main+0xa7>
    12a4:	b8 00 00 00 00       	mov    $0x0,%eax
    12a9:	e8 3b ff ff ff       	callq  11e9 <bad>
    12ae:	48 8d 45 c0          	lea    -0x40(%rbp),%rax
    12b2:	48 83 c0 12          	add    $0x12,%rax
    12b6:	ba 03 00 00 00       	mov    $0x3,%edx
    12bb:	48 8d 35 5c 0d 00 00 	lea    0xd5c(%rip),%rsi        # 201e <_IO_stdin_used+0x1e>
    12c2:	48 89 c7             	mov    %rax,%rdi
    12c5:	e8 d6 fd ff ff       	callq  10a0 <strncmp@plt>
    12ca:	85 c0                	test   %eax,%eax
    12cc:	74 0a                	je     12d8 <main+0xd1>
    12ce:	b8 00 00 00 00       	mov    $0x0,%eax
    12d3:	e8 11 ff ff ff       	callq  11e9 <bad>
    12d8:	48 8d 45 c0          	lea    -0x40(%rbp),%rax
    12dc:	48 83 c0 0c          	add    $0xc,%rax
    12e0:	ba 03 00 00 00       	mov    $0x3,%edx
    12e5:	48 8d 35 36 0d 00 00 	lea    0xd36(%rip),%rsi        # 2022 <_IO_stdin_used+0x22>
    12ec:	48 89 c7             	mov    %rax,%rdi
    12ef:	e8 ac fd ff ff       	callq  10a0 <strncmp@plt>
    12f4:	85 c0                	test   %eax,%eax
    12f6:	74 0a                	je     1302 <main+0xfb>
    12f8:	b8 00 00 00 00       	mov    $0x0,%eax
    12fd:	e8 e7 fe ff ff       	callq  11e9 <bad>
    1302:	48 8d 45 c0          	lea    -0x40(%rbp),%rax
    1306:	48 83 c0 09          	add    $0x9,%rax
    130a:	ba 03 00 00 00       	mov    $0x3,%edx
    130f:	48 8d 35 10 0d 00 00 	lea    0xd10(%rip),%rsi        # 2026 <_IO_stdin_used+0x26>
    1316:	48 89 c7             	mov    %rax,%rdi
    1319:	e8 82 fd ff ff       	callq  10a0 <strncmp@plt>
    131e:	85 c0                	test   %eax,%eax
    1320:	74 0a                	je     132c <main+0x125>
    1322:	b8 00 00 00 00       	mov    $0x0,%eax
    1327:	e8 bd fe ff ff       	callq  11e9 <bad>
    132c:	48 8d 45 c0          	lea    -0x40(%rbp),%rax
    1330:	48 83 c0 1b          	add    $0x1b,%rax
    1334:	ba 03 00 00 00       	mov    $0x3,%edx
    1339:	48 8d 35 ea 0c 00 00 	lea    0xcea(%rip),%rsi        # 202a <_IO_stdin_used+0x2a>
    1340:	48 89 c7             	mov    %rax,%rdi
    1343:	e8 58 fd ff ff       	callq  10a0 <strncmp@plt>
    1348:	85 c0                	test   %eax,%eax
    134a:	74 0a                	je     1356 <main+0x14f>
    134c:	b8 00 00 00 00       	mov    $0x0,%eax
    1351:	e8 93 fe ff ff       	callq  11e9 <bad>
    1356:	48 8d 45 c0          	lea    -0x40(%rbp),%rax
    135a:	48 83 c0 03          	add    $0x3,%rax
    135e:	ba 03 00 00 00       	mov    $0x3,%edx
    1363:	48 8d 35 c4 0c 00 00 	lea    0xcc4(%rip),%rsi        # 202e <_IO_stdin_used+0x2e>
    136a:	48 89 c7             	mov    %rax,%rdi
    136d:	e8 2e fd ff ff       	callq  10a0 <strncmp@plt>
    1372:	85 c0                	test   %eax,%eax
    1374:	74 0a                	je     1380 <main+0x179>
    1376:	b8 00 00 00 00       	mov    $0x0,%eax
    137b:	e8 69 fe ff ff       	callq  11e9 <bad>
    1380:	48 8d 45 c0          	lea    -0x40(%rbp),%rax
    1384:	48 83 c0 15          	add    $0x15,%rax
    1388:	ba 03 00 00 00       	mov    $0x3,%edx
    138d:	48 8d 35 9e 0c 00 00 	lea    0xc9e(%rip),%rsi        # 2032 <_IO_stdin_used+0x32>
    1394:	48 89 c7             	mov    %rax,%rdi
    1397:	e8 04 fd ff ff       	callq  10a0 <strncmp@plt>
    139c:	85 c0                	test   %eax,%eax
    139e:	74 0a                	je     13aa <main+0x1a3>
    13a0:	b8 00 00 00 00       	mov    $0x0,%eax
    13a5:	e8 3f fe ff ff       	callq  11e9 <bad>
    13aa:	48 8d 45 c0          	lea    -0x40(%rbp),%rax
    13ae:	48 83 c0 27          	add    $0x27,%rax
    13b2:	0f b6 10             	movzbl (%rax),%edx
    13b5:	0f b6 05 7a 0c 00 00 	movzbl 0xc7a(%rip),%eax        # 2036 <_IO_stdin_used+0x36>
    13bc:	0f b6 d2             	movzbl %dl,%edx
    13bf:	0f b6 c0             	movzbl %al,%eax
    13c2:	29 c2                	sub    %eax,%edx
    13c4:	89 d0                	mov    %edx,%eax
    13c6:	85 c0                	test   %eax,%eax
    13c8:	74 0a                	je     13d4 <main+0x1cd>
    13ca:	b8 00 00 00 00       	mov    $0x0,%eax
    13cf:	e8 15 fe ff ff       	callq  11e9 <bad>
    13d4:	48 8d 45 c0          	lea    -0x40(%rbp),%rax
    13d8:	48 83 c0 18          	add    $0x18,%rax
    13dc:	ba 03 00 00 00       	mov    $0x3,%edx
    13e1:	48 8d 35 50 0c 00 00 	lea    0xc50(%rip),%rsi        # 2038 <_IO_stdin_used+0x38>
    13e8:	48 89 c7             	mov    %rax,%rdi
    13eb:	e8 b0 fc ff ff       	callq  10a0 <strncmp@plt>
    13f0:	85 c0                	test   %eax,%eax
    13f2:	74 0a                	je     13fe <main+0x1f7>
    13f4:	b8 00 00 00 00       	mov    $0x0,%eax
    13f9:	e8 eb fd ff ff       	callq  11e9 <bad>
    13fe:	48 8d 45 c0          	lea    -0x40(%rbp),%rax
    1402:	48 83 c0 24          	add    $0x24,%rax
    1406:	ba 03 00 00 00       	mov    $0x3,%edx
    140b:	48 8d 35 2a 0c 00 00 	lea    0xc2a(%rip),%rsi        # 203c <_IO_stdin_used+0x3c>
    1412:	48 89 c7             	mov    %rax,%rdi
    1415:	e8 86 fc ff ff       	callq  10a0 <strncmp@plt>
    141a:	85 c0                	test   %eax,%eax
    141c:	74 0a                	je     1428 <main+0x221>
    141e:	b8 00 00 00 00       	mov    $0x0,%eax
    1423:	e8 c1 fd ff ff       	callq  11e9 <bad>
    1428:	48 8d 45 c0          	lea    -0x40(%rbp),%rax
    142c:	48 83 c0 0f          	add    $0xf,%rax
    1430:	ba 03 00 00 00       	mov    $0x3,%edx
    1435:	48 8d 35 04 0c 00 00 	lea    0xc04(%rip),%rsi        # 2040 <_IO_stdin_used+0x40>
    143c:	48 89 c7             	mov    %rax,%rdi
    143f:	e8 5c fc ff ff       	callq  10a0 <strncmp@plt>
    1444:	85 c0                	test   %eax,%eax
    1446:	74 0a                	je     1452 <main+0x24b>
    1448:	b8 00 00 00 00       	mov    $0x0,%eax
    144d:	e8 97 fd ff ff       	callq  11e9 <bad>
    1452:	48 8d 45 c0          	lea    -0x40(%rbp),%rax
    1456:	48 83 c0 21          	add    $0x21,%rax
    145a:	ba 03 00 00 00       	mov    $0x3,%edx
    145f:	48 8d 35 de 0b 00 00 	lea    0xbde(%rip),%rsi        # 2044 <_IO_stdin_used+0x44>
    1466:	48 89 c7             	mov    %rax,%rdi
    1469:	e8 32 fc ff ff       	callq  10a0 <strncmp@plt>
    146e:	85 c0                	test   %eax,%eax
    1470:	74 0a                	je     147c <main+0x275>
    1472:	b8 00 00 00 00       	mov    $0x0,%eax
    1477:	e8 6d fd ff ff       	callq  11e9 <bad>
    147c:	48 8d 45 c0          	lea    -0x40(%rbp),%rax
    1480:	ba 03 00 00 00       	mov    $0x3,%edx
    1485:	48 8d 35 bc 0b 00 00 	lea    0xbbc(%rip),%rsi        # 2048 <_IO_stdin_used+0x48>
    148c:	48 89 c7             	mov    %rax,%rdi
    148f:	e8 0c fc ff ff       	callq  10a0 <strncmp@plt>
    1494:	85 c0                	test   %eax,%eax
    1496:	74 0a                	je     14a2 <main+0x29b>
    1498:	b8 00 00 00 00       	mov    $0x0,%eax
    149d:	e8 47 fd ff ff       	callq  11e9 <bad>
    14a2:	48 8d 3d a7 0b 00 00 	lea    0xba7(%rip),%rdi        # 2050 <_IO_stdin_used+0x50>
    14a9:	e8 02 fc ff ff       	callq  10b0 <puts@plt>
    14ae:	b8 00 00 00 00       	mov    $0x0,%eax
    14b3:	48 8b 4d f8          	mov    -0x8(%rbp),%rcx
    14b7:	64 48 33 0c 25 28 00 	xor    %fs:0x28,%rcx
    14be:	00 00 
    14c0:	74 05                	je     14c7 <main+0x2c0>
    14c2:	e8 09 fc ff ff       	callq  10d0 <__stack_chk_fail@plt>
    14c7:	c9                   	leaveq 
    14c8:	c3                   	retq   
    14c9:	0f 1f 80 00 00 00 00 	nopl   0x0(%rax)

00000000000014d0 <__libc_csu_init>:
    14d0:	f3 0f 1e fa          	endbr64 
    14d4:	41 57                	push   %r15
    14d6:	4c 8d 3d b3 28 00 00 	lea    0x28b3(%rip),%r15        # 3d90 <__frame_dummy_init_array_entry>
    14dd:	41 56                	push   %r14
    14df:	49 89 d6             	mov    %rdx,%r14
    14e2:	41 55                	push   %r13
    14e4:	49 89 f5             	mov    %rsi,%r13
    14e7:	41 54                	push   %r12
    14e9:	41 89 fc             	mov    %edi,%r12d
    14ec:	55                   	push   %rbp
    14ed:	48 8d 2d a4 28 00 00 	lea    0x28a4(%rip),%rbp        # 3d98 <__do_global_dtors_aux_fini_array_entry>
    14f4:	53                   	push   %rbx
    14f5:	4c 29 fd             	sub    %r15,%rbp
    14f8:	48 83 ec 08          	sub    $0x8,%rsp
    14fc:	e8 ff fa ff ff       	callq  1000 <_init>
    1501:	48 c1 fd 03          	sar    $0x3,%rbp
    1505:	74 1f                	je     1526 <__libc_csu_init+0x56>
    1507:	31 db                	xor    %ebx,%ebx
    1509:	0f 1f 80 00 00 00 00 	nopl   0x0(%rax)
    1510:	4c 89 f2             	mov    %r14,%rdx
    1513:	4c 89 ee             	mov    %r13,%rsi
    1516:	44 89 e7             	mov    %r12d,%edi
    1519:	41 ff 14 df          	callq  *(%r15,%rbx,8)
    151d:	48 83 c3 01          	add    $0x1,%rbx
    1521:	48 39 dd             	cmp    %rbx,%rbp
    1524:	75 ea                	jne    1510 <__libc_csu_init+0x40>
    1526:	48 83 c4 08          	add    $0x8,%rsp
    152a:	5b                   	pop    %rbx
    152b:	5d                   	pop    %rbp
    152c:	41 5c                	pop    %r12
    152e:	41 5d                	pop    %r13
    1530:	41 5e                	pop    %r14
    1532:	41 5f                	pop    %r15
    1534:	c3                   	retq   
    1535:	66 66 2e 0f 1f 84 00 	data16 nopw %cs:0x0(%rax,%rax,1)
    153c:	00 00 00 00 

0000000000001540 <__libc_csu_fini>:
    1540:	f3 0f 1e fa          	endbr64 
    1544:	c3                   	retq   

Disassembly of section .fini:

0000000000001548 <_fini>:
    1548:	f3 0f 1e fa          	endbr64 
    154c:	48 83 ec 08          	sub    $0x8,%rsp
    1550:	48 83 c4 08          	add    $0x8,%rsp
    1554:	c3                   	retq   
