
challenge:     file format elf64-x86-64


Disassembly of section .init:

0000000000001000 <_init>:
    1000:	f3 0f 1e fa          	endbr64 
    1004:	48 83 ec 08          	sub    $0x8,%rsp
    1008:	48 8b 05 d9 2f 00 00 	mov    0x2fd9(%rip),%rax        # 3fe8 <__gmon_start__>
    100f:	48 85 c0             	test   %rax,%rax
    1012:	74 02                	je     1016 <_init+0x16>
    1014:	ff d0                	callq  *%rax
    1016:	48 83 c4 08          	add    $0x8,%rsp
    101a:	c3                   	retq   

Disassembly of section .plt:

0000000000001020 <.plt>:
    1020:	ff 35 52 2f 00 00    	pushq  0x2f52(%rip)        # 3f78 <_GLOBAL_OFFSET_TABLE_+0x8>
    1026:	f2 ff 25 53 2f 00 00 	bnd jmpq *0x2f53(%rip)        # 3f80 <_GLOBAL_OFFSET_TABLE_+0x10>
    102d:	0f 1f 00             	nopl   (%rax)
    1030:	f3 0f 1e fa          	endbr64 
    1034:	68 00 00 00 00       	pushq  $0x0
    1039:	f2 e9 e1 ff ff ff    	bnd jmpq 1020 <.plt>
    103f:	90                   	nop
    1040:	f3 0f 1e fa          	endbr64 
    1044:	68 01 00 00 00       	pushq  $0x1
    1049:	f2 e9 d1 ff ff ff    	bnd jmpq 1020 <.plt>
    104f:	90                   	nop
    1050:	f3 0f 1e fa          	endbr64 
    1054:	68 02 00 00 00       	pushq  $0x2
    1059:	f2 e9 c1 ff ff ff    	bnd jmpq 1020 <.plt>
    105f:	90                   	nop
    1060:	f3 0f 1e fa          	endbr64 
    1064:	68 03 00 00 00       	pushq  $0x3
    1069:	f2 e9 b1 ff ff ff    	bnd jmpq 1020 <.plt>
    106f:	90                   	nop
    1070:	f3 0f 1e fa          	endbr64 
    1074:	68 04 00 00 00       	pushq  $0x4
    1079:	f2 e9 a1 ff ff ff    	bnd jmpq 1020 <.plt>
    107f:	90                   	nop
    1080:	f3 0f 1e fa          	endbr64 
    1084:	68 05 00 00 00       	pushq  $0x5
    1089:	f2 e9 91 ff ff ff    	bnd jmpq 1020 <.plt>
    108f:	90                   	nop
    1090:	f3 0f 1e fa          	endbr64 
    1094:	68 06 00 00 00       	pushq  $0x6
    1099:	f2 e9 81 ff ff ff    	bnd jmpq 1020 <.plt>
    109f:	90                   	nop
    10a0:	f3 0f 1e fa          	endbr64 
    10a4:	68 07 00 00 00       	pushq  $0x7
    10a9:	f2 e9 71 ff ff ff    	bnd jmpq 1020 <.plt>
    10af:	90                   	nop
    10b0:	f3 0f 1e fa          	endbr64 
    10b4:	68 08 00 00 00       	pushq  $0x8
    10b9:	f2 e9 61 ff ff ff    	bnd jmpq 1020 <.plt>
    10bf:	90                   	nop
    10c0:	f3 0f 1e fa          	endbr64 
    10c4:	68 09 00 00 00       	pushq  $0x9
    10c9:	f2 e9 51 ff ff ff    	bnd jmpq 1020 <.plt>
    10cf:	90                   	nop

Disassembly of section .plt.got:

00000000000010d0 <__cxa_finalize@plt>:
    10d0:	f3 0f 1e fa          	endbr64 
    10d4:	f2 ff 25 1d 2f 00 00 	bnd jmpq *0x2f1d(%rip)        # 3ff8 <__cxa_finalize@GLIBC_2.2.5>
    10db:	0f 1f 44 00 00       	nopl   0x0(%rax,%rax,1)

Disassembly of section .plt.sec:

00000000000010e0 <puts@plt>:
    10e0:	f3 0f 1e fa          	endbr64 
    10e4:	f2 ff 25 9d 2e 00 00 	bnd jmpq *0x2e9d(%rip)        # 3f88 <puts@GLIBC_2.2.5>
    10eb:	0f 1f 44 00 00       	nopl   0x0(%rax,%rax,1)

00000000000010f0 <fread@plt>:
    10f0:	f3 0f 1e fa          	endbr64 
    10f4:	f2 ff 25 95 2e 00 00 	bnd jmpq *0x2e95(%rip)        # 3f90 <fread@GLIBC_2.2.5>
    10fb:	0f 1f 44 00 00       	nopl   0x0(%rax,%rax,1)

0000000000001100 <fclose@plt>:
    1100:	f3 0f 1e fa          	endbr64 
    1104:	f2 ff 25 8d 2e 00 00 	bnd jmpq *0x2e8d(%rip)        # 3f98 <fclose@GLIBC_2.2.5>
    110b:	0f 1f 44 00 00       	nopl   0x0(%rax,%rax,1)

0000000000001110 <printf@plt>:
    1110:	f3 0f 1e fa          	endbr64 
    1114:	f2 ff 25 85 2e 00 00 	bnd jmpq *0x2e85(%rip)        # 3fa0 <printf@GLIBC_2.2.5>
    111b:	0f 1f 44 00 00       	nopl   0x0(%rax,%rax,1)

0000000000001120 <fgets@plt>:
    1120:	f3 0f 1e fa          	endbr64 
    1124:	f2 ff 25 7d 2e 00 00 	bnd jmpq *0x2e7d(%rip)        # 3fa8 <fgets@GLIBC_2.2.5>
    112b:	0f 1f 44 00 00       	nopl   0x0(%rax,%rax,1)

0000000000001130 <ftell@plt>:
    1130:	f3 0f 1e fa          	endbr64 
    1134:	f2 ff 25 75 2e 00 00 	bnd jmpq *0x2e75(%rip)        # 3fb0 <ftell@GLIBC_2.2.5>
    113b:	0f 1f 44 00 00       	nopl   0x0(%rax,%rax,1)

0000000000001140 <fflush@plt>:
    1140:	f3 0f 1e fa          	endbr64 
    1144:	f2 ff 25 6d 2e 00 00 	bnd jmpq *0x2e6d(%rip)        # 3fb8 <fflush@GLIBC_2.2.5>
    114b:	0f 1f 44 00 00       	nopl   0x0(%rax,%rax,1)

0000000000001150 <fseek@plt>:
    1150:	f3 0f 1e fa          	endbr64 
    1154:	f2 ff 25 65 2e 00 00 	bnd jmpq *0x2e65(%rip)        # 3fc0 <fseek@GLIBC_2.2.5>
    115b:	0f 1f 44 00 00       	nopl   0x0(%rax,%rax,1)

0000000000001160 <fopen@plt>:
    1160:	f3 0f 1e fa          	endbr64 
    1164:	f2 ff 25 5d 2e 00 00 	bnd jmpq *0x2e5d(%rip)        # 3fc8 <fopen@GLIBC_2.2.5>
    116b:	0f 1f 44 00 00       	nopl   0x0(%rax,%rax,1)

0000000000001170 <exit@plt>:
    1170:	f3 0f 1e fa          	endbr64 
    1174:	f2 ff 25 55 2e 00 00 	bnd jmpq *0x2e55(%rip)        # 3fd0 <exit@GLIBC_2.2.5>
    117b:	0f 1f 44 00 00       	nopl   0x0(%rax,%rax,1)

Disassembly of section .text:

0000000000001180 <_start>:
    1180:	f3 0f 1e fa          	endbr64 
    1184:	31 ed                	xor    %ebp,%ebp
    1186:	49 89 d1             	mov    %rdx,%r9
    1189:	5e                   	pop    %rsi
    118a:	48 89 e2             	mov    %rsp,%rdx
    118d:	48 83 e4 f0          	and    $0xfffffffffffffff0,%rsp
    1191:	50                   	push   %rax
    1192:	54                   	push   %rsp
    1193:	4c 8d 05 76 04 00 00 	lea    0x476(%rip),%r8        # 1610 <__libc_csu_fini>
    119a:	48 8d 0d ff 03 00 00 	lea    0x3ff(%rip),%rcx        # 15a0 <__libc_csu_init>
    11a1:	48 8d 3d 8d 03 00 00 	lea    0x38d(%rip),%rdi        # 1535 <main>
    11a8:	ff 15 32 2e 00 00    	callq  *0x2e32(%rip)        # 3fe0 <__libc_start_main@GLIBC_2.2.5>
    11ae:	f4                   	hlt    
    11af:	90                   	nop

00000000000011b0 <deregister_tm_clones>:
    11b0:	48 8d 3d 59 2e 00 00 	lea    0x2e59(%rip),%rdi        # 4010 <stdout@@GLIBC_2.2.5>
    11b7:	48 8d 05 52 2e 00 00 	lea    0x2e52(%rip),%rax        # 4010 <stdout@@GLIBC_2.2.5>
    11be:	48 39 f8             	cmp    %rdi,%rax
    11c1:	74 15                	je     11d8 <deregister_tm_clones+0x28>
    11c3:	48 8b 05 0e 2e 00 00 	mov    0x2e0e(%rip),%rax        # 3fd8 <_ITM_deregisterTMCloneTable>
    11ca:	48 85 c0             	test   %rax,%rax
    11cd:	74 09                	je     11d8 <deregister_tm_clones+0x28>
    11cf:	ff e0                	jmpq   *%rax
    11d1:	0f 1f 80 00 00 00 00 	nopl   0x0(%rax)
    11d8:	c3                   	retq   
    11d9:	0f 1f 80 00 00 00 00 	nopl   0x0(%rax)

00000000000011e0 <register_tm_clones>:
    11e0:	48 8d 3d 29 2e 00 00 	lea    0x2e29(%rip),%rdi        # 4010 <stdout@@GLIBC_2.2.5>
    11e7:	48 8d 35 22 2e 00 00 	lea    0x2e22(%rip),%rsi        # 4010 <stdout@@GLIBC_2.2.5>
    11ee:	48 29 fe             	sub    %rdi,%rsi
    11f1:	48 89 f0             	mov    %rsi,%rax
    11f4:	48 c1 ee 3f          	shr    $0x3f,%rsi
    11f8:	48 c1 f8 03          	sar    $0x3,%rax
    11fc:	48 01 c6             	add    %rax,%rsi
    11ff:	48 d1 fe             	sar    %rsi
    1202:	74 14                	je     1218 <register_tm_clones+0x38>
    1204:	48 8b 05 e5 2d 00 00 	mov    0x2de5(%rip),%rax        # 3ff0 <_ITM_registerTMCloneTable>
    120b:	48 85 c0             	test   %rax,%rax
    120e:	74 08                	je     1218 <register_tm_clones+0x38>
    1210:	ff e0                	jmpq   *%rax
    1212:	66 0f 1f 44 00 00    	nopw   0x0(%rax,%rax,1)
    1218:	c3                   	retq   
    1219:	0f 1f 80 00 00 00 00 	nopl   0x0(%rax)

0000000000001220 <__do_global_dtors_aux>:
    1220:	f3 0f 1e fa          	endbr64 
    1224:	80 3d fd 2d 00 00 00 	cmpb   $0x0,0x2dfd(%rip)        # 4028 <completed.8061>
    122b:	75 2b                	jne    1258 <__do_global_dtors_aux+0x38>
    122d:	55                   	push   %rbp
    122e:	48 83 3d c2 2d 00 00 	cmpq   $0x0,0x2dc2(%rip)        # 3ff8 <__cxa_finalize@GLIBC_2.2.5>
    1235:	00 
    1236:	48 89 e5             	mov    %rsp,%rbp
    1239:	74 0c                	je     1247 <__do_global_dtors_aux+0x27>
    123b:	48 8b 3d c6 2d 00 00 	mov    0x2dc6(%rip),%rdi        # 4008 <__dso_handle>
    1242:	e8 89 fe ff ff       	callq  10d0 <__cxa_finalize@plt>
    1247:	e8 64 ff ff ff       	callq  11b0 <deregister_tm_clones>
    124c:	c6 05 d5 2d 00 00 01 	movb   $0x1,0x2dd5(%rip)        # 4028 <completed.8061>
    1253:	5d                   	pop    %rbp
    1254:	c3                   	retq   
    1255:	0f 1f 00             	nopl   (%rax)
    1258:	c3                   	retq   
    1259:	0f 1f 80 00 00 00 00 	nopl   0x0(%rax)

0000000000001260 <frame_dummy>:
    1260:	f3 0f 1e fa          	endbr64 
    1264:	e9 77 ff ff ff       	jmpq   11e0 <register_tm_clones>

0000000000001269 <lilypad>:
    1269:	f3 0f 1e fa          	endbr64 
    126d:	55                   	push   %rbp
    126e:	48 89 e5             	mov    %rsp,%rbp
    1271:	48 83 ec 10          	sub    $0x10,%rsp
    1275:	48 89 7d f8          	mov    %rdi,-0x8(%rbp)
    1279:	48 8b 15 a0 2d 00 00 	mov    0x2da0(%rip),%rdx        # 4020 <stdin@@GLIBC_2.2.5>
    1280:	48 8b 45 f8          	mov    -0x8(%rbp),%rax
    1284:	be 28 00 00 00       	mov    $0x28,%esi
    1289:	48 89 c7             	mov    %rax,%rdi
    128c:	e8 8f fe ff ff       	callq  1120 <fgets@plt>
    1291:	90                   	nop
    1292:	c9                   	leaveq 
    1293:	c3                   	retq   

0000000000001294 <set_frog>:
    1294:	f3 0f 1e fa          	endbr64 
    1298:	55                   	push   %rbp
    1299:	48 89 e5             	mov    %rsp,%rbp
    129c:	48 8d 3d 65 0d 00 00 	lea    0xd65(%rip),%rdi        # 2008 <_IO_stdin_used+0x8>
    12a3:	e8 38 fe ff ff       	callq  10e0 <puts@plt>
    12a8:	0f b6 05 7c 2d 00 00 	movzbl 0x2d7c(%rip),%eax        # 402b <wallet_supports_frog_coin>
    12af:	88 05 74 2d 00 00    	mov    %al,0x2d74(%rip)        # 4029 <frog>
    12b5:	0f b6 05 6d 2d 00 00 	movzbl 0x2d6d(%rip),%eax        # 4029 <frog>
    12bc:	84 c0                	test   %al,%al
    12be:	74 0c                	je     12cc <set_frog+0x38>
    12c0:	48 8d 3d 51 0d 00 00 	lea    0xd51(%rip),%rdi        # 2018 <_IO_stdin_used+0x18>
    12c7:	e8 14 fe ff ff       	callq  10e0 <puts@plt>
    12cc:	48 8b 05 3d 2d 00 00 	mov    0x2d3d(%rip),%rax        # 4010 <stdout@@GLIBC_2.2.5>
    12d3:	48 89 c7             	mov    %rax,%rdi
    12d6:	e8 65 fe ff ff       	callq  1140 <fflush@plt>
    12db:	90                   	nop
    12dc:	5d                   	pop    %rbp
    12dd:	c3                   	retq   

00000000000012de <set_coin>:
    12de:	f3 0f 1e fa          	endbr64 
    12e2:	55                   	push   %rbp
    12e3:	48 89 e5             	mov    %rsp,%rbp
    12e6:	48 8d 3d 35 0d 00 00 	lea    0xd35(%rip),%rdi        # 2022 <_IO_stdin_used+0x22>
    12ed:	e8 ee fd ff ff       	callq  10e0 <puts@plt>
    12f2:	0f b6 05 30 2d 00 00 	movzbl 0x2d30(%rip),%eax        # 4029 <frog>
    12f9:	88 05 2b 2d 00 00    	mov    %al,0x2d2b(%rip)        # 402a <coin>
    12ff:	0f b6 05 24 2d 00 00 	movzbl 0x2d24(%rip),%eax        # 402a <coin>
    1306:	84 c0                	test   %al,%al
    1308:	74 0c                	je     1316 <set_coin+0x38>
    130a:	48 8d 3d 21 0d 00 00 	lea    0xd21(%rip),%rdi        # 2032 <_IO_stdin_used+0x32>
    1311:	e8 ca fd ff ff       	callq  10e0 <puts@plt>
    1316:	48 8b 05 f3 2c 00 00 	mov    0x2cf3(%rip),%rax        # 4010 <stdout@@GLIBC_2.2.5>
    131d:	48 89 c7             	mov    %rax,%rdi
    1320:	e8 1b fe ff ff       	callq  1140 <fflush@plt>
    1325:	90                   	nop
    1326:	5d                   	pop    %rbp
    1327:	c3                   	retq   

0000000000001328 <froggers>:
    1328:	f3 0f 1e fa          	endbr64 
    132c:	55                   	push   %rbp
    132d:	48 89 e5             	mov    %rsp,%rbp
    1330:	41 57                	push   %r15
    1332:	41 56                	push   %r14
    1334:	41 55                	push   %r13
    1336:	41 54                	push   %r12
    1338:	53                   	push   %rbx
    1339:	48 83 ec 38          	sub    $0x38,%rsp
    133d:	48 89 7d a8          	mov    %rdi,-0x58(%rbp)
    1341:	48 8b 45 a8          	mov    -0x58(%rbp),%rax
    1345:	48 89 c6             	mov    %rax,%rsi
    1348:	48 8d 3d ed 0c 00 00 	lea    0xced(%rip),%rdi        # 203c <_IO_stdin_used+0x3c>
    134f:	b8 00 00 00 00       	mov    $0x0,%eax
    1354:	e8 b7 fd ff ff       	callq  1110 <printf@plt>
    1359:	0f b6 05 c9 2c 00 00 	movzbl 0x2cc9(%rip),%eax        # 4029 <frog>
    1360:	84 c0                	test   %al,%al
    1362:	0f 84 a3 01 00 00    	je     150b <froggers+0x1e3>
    1368:	0f b6 05 bb 2c 00 00 	movzbl 0x2cbb(%rip),%eax        # 402a <coin>
    136f:	84 c0                	test   %al,%al
    1371:	0f 84 94 01 00 00    	je     150b <froggers+0x1e3>
    1377:	48 89 e0             	mov    %rsp,%rax
    137a:	48 89 c3             	mov    %rax,%rbx
    137d:	48 8d 35 be 0c 00 00 	lea    0xcbe(%rip),%rsi        # 2042 <_IO_stdin_used+0x42>
    1384:	48 8d 3d b9 0c 00 00 	lea    0xcb9(%rip),%rdi        # 2044 <_IO_stdin_used+0x44>
    138b:	e8 d0 fd ff ff       	callq  1160 <fopen@plt>
    1390:	48 89 45 c8          	mov    %rax,-0x38(%rbp)
    1394:	48 83 7d c8 00       	cmpq   $0x0,-0x38(%rbp)
    1399:	75 08                	jne    13a3 <froggers+0x7b>
    139b:	48 89 dc             	mov    %rbx,%rsp
    139e:	e9 83 01 00 00       	jmpq   1526 <froggers+0x1fe>
    13a3:	48 8b 45 c8          	mov    -0x38(%rbp),%rax
    13a7:	ba 02 00 00 00       	mov    $0x2,%edx
    13ac:	be 00 00 00 00       	mov    $0x0,%esi
    13b1:	48 89 c7             	mov    %rax,%rdi
    13b4:	e8 97 fd ff ff       	callq  1150 <fseek@plt>
    13b9:	48 8b 45 c8          	mov    -0x38(%rbp),%rax
    13bd:	48 89 c7             	mov    %rax,%rdi
    13c0:	e8 6b fd ff ff       	callq  1130 <ftell@plt>
    13c5:	48 89 45 c0          	mov    %rax,-0x40(%rbp)
    13c9:	48 8b 45 c8          	mov    -0x38(%rbp),%rax
    13cd:	ba 00 00 00 00       	mov    $0x0,%edx
    13d2:	be 00 00 00 00       	mov    $0x0,%esi
    13d7:	48 89 c7             	mov    %rax,%rdi
    13da:	e8 71 fd ff ff       	callq  1150 <fseek@plt>
    13df:	48 8b 45 c0          	mov    -0x40(%rbp),%rax
    13e3:	48 83 c0 01          	add    $0x1,%rax
    13e7:	48 8d 50 ff          	lea    -0x1(%rax),%rdx
    13eb:	48 89 55 b8          	mov    %rdx,-0x48(%rbp)
    13ef:	48 89 c2             	mov    %rax,%rdx
    13f2:	49 89 d6             	mov    %rdx,%r14
    13f5:	41 bf 00 00 00 00    	mov    $0x0,%r15d
    13fb:	48 89 c2             	mov    %rax,%rdx
    13fe:	49 89 d4             	mov    %rdx,%r12
    1401:	41 bd 00 00 00 00    	mov    $0x0,%r13d
    1407:	48 89 c2             	mov    %rax,%rdx
    140a:	b8 10 00 00 00       	mov    $0x10,%eax
    140f:	48 83 e8 01          	sub    $0x1,%rax
    1413:	48 01 d0             	add    %rdx,%rax
    1416:	be 10 00 00 00       	mov    $0x10,%esi
    141b:	ba 00 00 00 00       	mov    $0x0,%edx
    1420:	48 f7 f6             	div    %rsi
    1423:	48 6b c0 10          	imul   $0x10,%rax,%rax
    1427:	48 89 c2             	mov    %rax,%rdx
    142a:	48 81 e2 00 f0 ff ff 	and    $0xfffffffffffff000,%rdx
    1431:	48 89 e1             	mov    %rsp,%rcx
    1434:	48 29 d1             	sub    %rdx,%rcx
    1437:	48 89 ca             	mov    %rcx,%rdx
    143a:	48 39 d4             	cmp    %rdx,%rsp
    143d:	74 12                	je     1451 <froggers+0x129>
    143f:	48 81 ec 00 10 00 00 	sub    $0x1000,%rsp
    1446:	48 83 8c 24 f8 0f 00 	orq    $0x0,0xff8(%rsp)
    144d:	00 00 
    144f:	eb e9                	jmp    143a <froggers+0x112>
    1451:	48 89 c2             	mov    %rax,%rdx
    1454:	81 e2 ff 0f 00 00    	and    $0xfff,%edx
    145a:	48 29 d4             	sub    %rdx,%rsp
    145d:	48 89 c2             	mov    %rax,%rdx
    1460:	81 e2 ff 0f 00 00    	and    $0xfff,%edx
    1466:	48 85 d2             	test   %rdx,%rdx
    1469:	74 10                	je     147b <froggers+0x153>
    146b:	25 ff 0f 00 00       	and    $0xfff,%eax
    1470:	48 83 e8 08          	sub    $0x8,%rax
    1474:	48 01 e0             	add    %rsp,%rax
    1477:	48 83 08 00          	orq    $0x0,(%rax)
    147b:	48 89 e0             	mov    %rsp,%rax
    147e:	48 83 c0 00          	add    $0x0,%rax
    1482:	48 89 45 b0          	mov    %rax,-0x50(%rbp)
    1486:	48 8b 55 b0          	mov    -0x50(%rbp),%rdx
    148a:	48 8b 45 c0          	mov    -0x40(%rbp),%rax
    148e:	48 01 d0             	add    %rdx,%rax
    1491:	c6 00 00             	movb   $0x0,(%rax)
    1494:	48 8b 55 c0          	mov    -0x40(%rbp),%rdx
    1498:	48 8b 4d c8          	mov    -0x38(%rbp),%rcx
    149c:	48 8b 45 b0          	mov    -0x50(%rbp),%rax
    14a0:	be 01 00 00 00       	mov    $0x1,%esi
    14a5:	48 89 c7             	mov    %rax,%rdi
    14a8:	e8 43 fc ff ff       	callq  10f0 <fread@plt>
    14ad:	0f b6 05 75 2b 00 00 	movzbl 0x2b75(%rip),%eax        # 4029 <frog>
    14b4:	83 f0 01             	xor    $0x1,%eax
    14b7:	84 c0                	test   %al,%al
    14b9:	75 0e                	jne    14c9 <froggers+0x1a1>
    14bb:	0f b6 05 68 2b 00 00 	movzbl 0x2b68(%rip),%eax        # 402a <coin>
    14c2:	83 f0 01             	xor    $0x1,%eax
    14c5:	84 c0                	test   %al,%al
    14c7:	74 25                	je     14ee <froggers+0x1c6>
    14c9:	48 8d 3d 7d 0b 00 00 	lea    0xb7d(%rip),%rdi        # 204d <_IO_stdin_used+0x4d>
    14d0:	e8 0b fc ff ff       	callq  10e0 <puts@plt>
    14d5:	48 8b 05 34 2b 00 00 	mov    0x2b34(%rip),%rax        # 4010 <stdout@@GLIBC_2.2.5>
    14dc:	48 89 c7             	mov    %rax,%rdi
    14df:	e8 5c fc ff ff       	callq  1140 <fflush@plt>
    14e4:	bf 01 00 00 00       	mov    $0x1,%edi
    14e9:	e8 82 fc ff ff       	callq  1170 <exit@plt>
    14ee:	48 8b 45 b0          	mov    -0x50(%rbp),%rax
    14f2:	48 89 c7             	mov    %rax,%rdi
    14f5:	e8 e6 fb ff ff       	callq  10e0 <puts@plt>
    14fa:	48 8b 45 c8          	mov    -0x38(%rbp),%rax
    14fe:	48 89 c7             	mov    %rax,%rdi
    1501:	e8 fa fb ff ff       	callq  1100 <fclose@plt>
    1506:	48 89 dc             	mov    %rbx,%rsp
    1509:	eb 0c                	jmp    1517 <froggers+0x1ef>
    150b:	48 8d 3d 4e 0b 00 00 	lea    0xb4e(%rip),%rdi        # 2060 <_IO_stdin_used+0x60>
    1512:	e8 c9 fb ff ff       	callq  10e0 <puts@plt>
    1517:	48 8b 05 f2 2a 00 00 	mov    0x2af2(%rip),%rax        # 4010 <stdout@@GLIBC_2.2.5>
    151e:	48 89 c7             	mov    %rax,%rdi
    1521:	e8 1a fc ff ff       	callq  1140 <fflush@plt>
    1526:	48 8d 65 d8          	lea    -0x28(%rbp),%rsp
    152a:	5b                   	pop    %rbx
    152b:	41 5c                	pop    %r12
    152d:	41 5d                	pop    %r13
    152f:	41 5e                	pop    %r14
    1531:	41 5f                	pop    %r15
    1533:	5d                   	pop    %rbp
    1534:	c3                   	retq   

0000000000001535 <main>:
    1535:	f3 0f 1e fa          	endbr64 
    1539:	55                   	push   %rbp
    153a:	48 89 e5             	mov    %rsp,%rbp
    153d:	48 83 ec 10          	sub    $0x10,%rsp
    1541:	48 8d 35 ed ff ff ff 	lea    -0x13(%rip),%rsi        # 1535 <main>
    1548:	48 8d 3d 39 0b 00 00 	lea    0xb39(%rip),%rdi        # 2088 <_IO_stdin_used+0x88>
    154f:	b8 00 00 00 00       	mov    $0x0,%eax
    1554:	e8 b7 fb ff ff       	callq  1110 <printf@plt>
    1559:	48 8b 05 b0 2a 00 00 	mov    0x2ab0(%rip),%rax        # 4010 <stdout@@GLIBC_2.2.5>
    1560:	48 89 c7             	mov    %rax,%rdi
    1563:	e8 d8 fb ff ff       	callq  1140 <fflush@plt>
    1568:	48 8d 45 f0          	lea    -0x10(%rbp),%rax
    156c:	48 89 c7             	mov    %rax,%rdi
    156f:	e8 f5 fc ff ff       	callq  1269 <lilypad>
    1574:	48 8d 45 f0          	lea    -0x10(%rbp),%rax
    1578:	48 89 c7             	mov    %rax,%rdi
    157b:	e8 a8 fd ff ff       	callq  1328 <froggers>
    1580:	0f b6 05 a4 2a 00 00 	movzbl 0x2aa4(%rip),%eax        # 402b <wallet_supports_frog_coin>
    1587:	83 f0 01             	xor    $0x1,%eax
    158a:	84 c0                	test   %al,%al
    158c:	74 07                	je     1595 <main+0x60>
    158e:	c6 05 96 2a 00 00 01 	movb   $0x1,0x2a96(%rip)        # 402b <wallet_supports_frog_coin>
    1595:	b8 00 00 00 00       	mov    $0x0,%eax
    159a:	c9                   	leaveq 
    159b:	c3                   	retq   
    159c:	0f 1f 40 00          	nopl   0x0(%rax)

00000000000015a0 <__libc_csu_init>:
    15a0:	f3 0f 1e fa          	endbr64 
    15a4:	41 57                	push   %r15
    15a6:	4c 8d 3d c3 27 00 00 	lea    0x27c3(%rip),%r15        # 3d70 <__frame_dummy_init_array_entry>
    15ad:	41 56                	push   %r14
    15af:	49 89 d6             	mov    %rdx,%r14
    15b2:	41 55                	push   %r13
    15b4:	49 89 f5             	mov    %rsi,%r13
    15b7:	41 54                	push   %r12
    15b9:	41 89 fc             	mov    %edi,%r12d
    15bc:	55                   	push   %rbp
    15bd:	48 8d 2d b4 27 00 00 	lea    0x27b4(%rip),%rbp        # 3d78 <__do_global_dtors_aux_fini_array_entry>
    15c4:	53                   	push   %rbx
    15c5:	4c 29 fd             	sub    %r15,%rbp
    15c8:	48 83 ec 08          	sub    $0x8,%rsp
    15cc:	e8 2f fa ff ff       	callq  1000 <_init>
    15d1:	48 c1 fd 03          	sar    $0x3,%rbp
    15d5:	74 1f                	je     15f6 <__libc_csu_init+0x56>
    15d7:	31 db                	xor    %ebx,%ebx
    15d9:	0f 1f 80 00 00 00 00 	nopl   0x0(%rax)
    15e0:	4c 89 f2             	mov    %r14,%rdx
    15e3:	4c 89 ee             	mov    %r13,%rsi
    15e6:	44 89 e7             	mov    %r12d,%edi
    15e9:	41 ff 14 df          	callq  *(%r15,%rbx,8)
    15ed:	48 83 c3 01          	add    $0x1,%rbx
    15f1:	48 39 dd             	cmp    %rbx,%rbp
    15f4:	75 ea                	jne    15e0 <__libc_csu_init+0x40>
    15f6:	48 83 c4 08          	add    $0x8,%rsp
    15fa:	5b                   	pop    %rbx
    15fb:	5d                   	pop    %rbp
    15fc:	41 5c                	pop    %r12
    15fe:	41 5d                	pop    %r13
    1600:	41 5e                	pop    %r14
    1602:	41 5f                	pop    %r15
    1604:	c3                   	retq   
    1605:	66 66 2e 0f 1f 84 00 	data16 nopw %cs:0x0(%rax,%rax,1)
    160c:	00 00 00 00 

0000000000001610 <__libc_csu_fini>:
    1610:	f3 0f 1e fa          	endbr64 
    1614:	c3                   	retq   

Disassembly of section .fini:

0000000000001618 <_fini>:
    1618:	f3 0f 1e fa          	endbr64 
    161c:	48 83 ec 08          	sub    $0x8,%rsp
    1620:	48 83 c4 08          	add    $0x8,%rsp
    1624:	c3                   	retq   
